target datalayout = "e-m:e-p270:32:32-p271:32:32-p272:64:64-i64:64-i128:128-f80:128-n8:16:32:64-S128"
target triple = "x86_64-pc-linux-gnu"

%struct.packing_data = type { ptr, ptr, i32, i32, ptr, i32, ptr, ptr, ptr, ptr, %union.pthread_mutex_t, ptr, i32, i32, i64, i64, ptr, ptr, ptr }
%union.pthread_mutex_t = type { %struct.__pthread_mutex_s }
%struct.__pthread_mutex_s = type { i32, i32, i32, i32, i32, i16, i16, %struct.__pthread_internal_list }
%struct.__pthread_internal_list = type { ptr, ptr }
%struct.object_id = type { [32 x i8], i32 }
%struct.object = type { i32, %struct.object_id }

@to_pack = internal global %struct.packing_data zeroinitializer, align 8
@use_delta_islands = internal global i32 0, align 4

; Function Attrs: inlinehint nounwind uwtable
define internal void @oe_set_tree_depth(ptr noundef %0, ptr noundef %1, i32 noundef %2) #2 {
  %4 = alloca ptr, align 8
  %5 = alloca ptr, align 8
  %6 = alloca i32, align 4
  store ptr %0, ptr %4, align 8, !tbaa !4
  store ptr %1, ptr %5, align 8, !tbaa !9
  store i32 %2, ptr %6, align 4, !tbaa !27
  %7 = load ptr, ptr %4, align 8, !tbaa !4
  %8 = getelementptr inbounds nuw %struct.packing_data, ptr %7, i32 0, i32 16
  %9 = load ptr, ptr %8, align 8, !tbaa !225
  %10 = icmp ne ptr %9, null
  br i1 %10, label %19, label %11

11:                                               ; preds = %3
  %12 = load ptr, ptr %4, align 8, !tbaa !4
  %13 = getelementptr inbounds nuw %struct.packing_data, ptr %12, i32 0, i32 3
  %14 = load i32, ptr %13, align 4, !tbaa !226
  %15 = zext i32 %14 to i64
  %16 = call ptr @xcalloc(i64 noundef %15, i64 noundef 4)
  %17 = load ptr, ptr %4, align 8, !tbaa !4
  %18 = getelementptr inbounds nuw %struct.packing_data, ptr %17, i32 0, i32 16
  store ptr %16, ptr %18, align 8, !tbaa !225
  br label %19

19:                                               ; preds = %11, %3
  %20 = load i32, ptr %6, align 4, !tbaa !27
  %21 = load ptr, ptr %4, align 8, !tbaa !4
  %22 = getelementptr inbounds nuw %struct.packing_data, ptr %21, i32 0, i32 16
  %23 = load ptr, ptr %22, align 8, !tbaa !225
  %24 = load ptr, ptr %5, align 8, !tbaa !9
  %25 = load ptr, ptr %4, align 8, !tbaa !4
  %26 = getelementptr inbounds nuw %struct.packing_data, ptr %25, i32 0, i32 1
  %27 = load ptr, ptr %26, align 8, !tbaa !34
  %28 = ptrtoint ptr %24 to i64
  %29 = ptrtoint ptr %27 to i64
  %30 = sub i64 %28, %29
  %31 = sdiv exact i64 %30, 96
  %32 = getelementptr inbounds i32, ptr %23, i64 %31
  store i32 %20, ptr %32, align 4, !tbaa !27
  ret void
}

; Function Attrs: inlinehint nounwind uwtable
define internal i32 @oe_tree_depth(ptr noundef %0, ptr noundef %1) #2 {
  %3 = alloca i32, align 4
  %4 = alloca ptr, align 8
  %5 = alloca ptr, align 8
  store ptr %0, ptr %4, align 8, !tbaa !4
  store ptr %1, ptr %5, align 8, !tbaa !9
  %6 = load ptr, ptr %4, align 8, !tbaa !4
  %7 = getelementptr inbounds nuw %struct.packing_data, ptr %6, i32 0, i32 16
  %8 = load ptr, ptr %7, align 8, !tbaa !225
  %9 = icmp ne ptr %8, null
  br i1 %9, label %11, label %10

10:                                               ; preds = %2
  store i32 0, ptr %3, align 4
  br label %25

11:                                               ; preds = %2
  %12 = load ptr, ptr %4, align 8, !tbaa !4
  %13 = getelementptr inbounds nuw %struct.packing_data, ptr %12, i32 0, i32 16
  %14 = load ptr, ptr %13, align 8, !tbaa !225
  %15 = load ptr, ptr %5, align 8, !tbaa !9
  %16 = load ptr, ptr %4, align 8, !tbaa !4
  %17 = getelementptr inbounds nuw %struct.packing_data, ptr %16, i32 0, i32 1
  %18 = load ptr, ptr %17, align 8, !tbaa !34
  %19 = ptrtoint ptr %15 to i64
  %20 = ptrtoint ptr %18 to i64
  %21 = sub i64 %19, %20
  %22 = sdiv exact i64 %21, 96
  %23 = getelementptr inbounds i32, ptr %14, i64 %22
  %24 = load i32, ptr %23, align 4, !tbaa !27
  store i32 %24, ptr %3, align 4
  br label %25

25:                                               ; preds = %11, %10
  %26 = load i32, ptr %3, align 4
  ret i32 %26
}

; Function Attrs: nounwind uwtable
define internal void @show_object(ptr noundef %0, ptr noundef %1, ptr noundef %2) #0 {
  %4 = alloca ptr, align 8
  %5 = alloca ptr, align 8
  %6 = alloca ptr, align 8
  %7 = alloca ptr, align 8
  %8 = alloca i32, align 4
  %9 = alloca ptr, align 8
  store ptr %0, ptr %4, align 8, !tbaa !171
  store ptr %1, ptr %5, align 8, !tbaa !24
  store ptr %2, ptr %6, align 8, !tbaa !134
  %10 = load ptr, ptr %5, align 8, !tbaa !24
  call void @add_preferred_base_object(ptr noundef %10)
  %11 = load ptr, ptr %4, align 8, !tbaa !171
  %12 = getelementptr inbounds nuw %struct.object, ptr %11, i32 0, i32 1
  %13 = load ptr, ptr %4, align 8, !tbaa !171
  %14 = load i32, ptr %13, align 4
  %15 = lshr i32 %14, 1
  %16 = and i32 %15, 7
  %17 = load ptr, ptr %5, align 8, !tbaa !24
  %18 = call i32 @add_object_entry(ptr noundef %12, i32 noundef %16, ptr noundef %17, i32 noundef 0)
  %19 = load i32, ptr @use_delta_islands, align 4, !tbaa !27
  %20 = icmp ne i32 %19, 0
  br i1 %20, label %21, label %54

21:                                               ; preds = %3
  call void @llvm.lifetime.start.p0(i64 8, ptr %7) #11
  call void @llvm.lifetime.start.p0(i64 4, ptr %8) #11
  call void @llvm.lifetime.start.p0(i64 8, ptr %9) #11
  %22 = load ptr, ptr %5, align 8, !tbaa !24
  %23 = load i8, ptr %22, align 1, !tbaa !26
  %24 = sext i8 %23 to i32
  %25 = icmp ne i32 %24, 0
  %26 = select i1 %25, i32 1, i32 0
  store i32 %26, ptr %8, align 4, !tbaa !27
  %27 = load ptr, ptr %5, align 8, !tbaa !24
  %28 = call ptr @strchr(ptr noundef %27, i32 noundef 47) #13
  store ptr %28, ptr %7, align 8, !tbaa !24
  br label %29

29:                                               ; preds = %35, %21
  %30 = load ptr, ptr %7, align 8, !tbaa !24
  %31 = icmp ne ptr %30, null
  br i1 %31, label %32, label %39

32:                                               ; preds = %29
  %33 = load i32, ptr %8, align 4, !tbaa !27
  %34 = add i32 %33, 1
  store i32 %34, ptr %8, align 4, !tbaa !27
  br label %35

35:                                               ; preds = %32
  %36 = load ptr, ptr %7, align 8, !tbaa !24
  %37 = getelementptr inbounds i8, ptr %36, i64 1
  %38 = call ptr @strchr(ptr noundef %37, i32 noundef 47) #13
  store ptr %38, ptr %7, align 8, !tbaa !24
  br label %29, !llvm.loop !221

39:                                               ; preds = %29
  %40 = load ptr, ptr %4, align 8, !tbaa !171
  %41 = getelementptr inbounds nuw %struct.object, ptr %40, i32 0, i32 1
  %42 = call ptr @packlist_find(ptr noundef @to_pack, ptr noundef %41)
  store ptr %42, ptr %9, align 8, !tbaa !9
  %43 = load ptr, ptr %9, align 8, !tbaa !9
  %44 = icmp ne ptr %43, null
  br i1 %44, label %45, label %53

45:                                               ; preds = %39
  %46 = load i32, ptr %8, align 4, !tbaa !27
  %47 = load ptr, ptr %9, align 8, !tbaa !9
  %48 = call i32 @oe_tree_depth(ptr noundef @to_pack, ptr noundef %47)
  %49 = icmp ugt i32 %46, %48
  br i1 %49, label %50, label %53

50:                                               ; preds = %45
  %51 = load ptr, ptr %9, align 8, !tbaa !9
  %52 = load i32, ptr %8, align 4, !tbaa !27
  call void @oe_set_tree_depth(ptr noundef @to_pack, ptr noundef %51, i32 noundef %52)
  br label %53

53:                                               ; preds = %50, %45, %39
  call void @llvm.lifetime.end.p0(i64 8, ptr %9) #11
  call void @llvm.lifetime.end.p0(i64 4, ptr %8) #11
  call void @llvm.lifetime.end.p0(i64 8, ptr %7) #11
  br label %54

54:                                               ; preds = %53, %3
  ret void
}