; Function Attrs: nounwind uwtable
define internal void @show_object(ptr noundef %0, ptr noundef %1, ptr readnone captures(none) %2) #0 {
  tail call fastcc void @add_preferred_base_object(ptr noundef %1)
  %4 = getelementptr inbounds nuw i8, ptr %0, i64 4
  %5 = load i32, ptr %0, align 4
  %6 = lshr i32 %5, 1
  %7 = and i32 %6, 7
  tail call fastcc void @add_object_entry(ptr noundef nonnull %4, i32 noundef %7, ptr noundef %1, i32 noundef 0)
  %8 = load i32, ptr @use_delta_islands, align 4, !tbaa !30
  %.not = icmp eq i32 %8, 0
  br i1 %.not, label %33, label %9

9:                                                ; preds = %3
  %10 = load i8, ptr %1, align 1, !tbaa !29
  %.not16 = icmp ne i8 %10, 0
  %11 = zext i1 %.not16 to i32
  %12 = tail call ptr @strchr(ptr noundef nonnull dereferenceable(1) %1, i32 noundef 47) #28
  %.not1722 = icmp eq ptr %12, null
  br i1 %.not1722, label %._crit_edge, label %.lr.ph

.lr.ph:                                           ; preds = %9, %.lr.ph
  %.024 = phi ptr [ %15, %.lr.ph ], [ %12, %9 ]
  %.01423 = phi i32 [ %13, %.lr.ph ], [ %11, %9 ]
  %13 = add i32 %.01423, 1
  %14 = getelementptr inbounds nuw i8, ptr %.024, i64 1
  %15 = tail call ptr @strchr(ptr noundef nonnull dereferenceable(1) %14, i32 noundef 47) #28
  %.not17 = icmp eq ptr %15, null
  br i1 %.not17, label %._crit_edge, label %.lr.ph, !llvm.loop !285

._crit_edge:                                      ; preds = %.lr.ph, %9
  %.014.lcssa = phi i32 [ %11, %9 ], [ %13, %.lr.ph ]
  %16 = tail call ptr @packlist_find(ptr noundef nonnull @to_pack, ptr noundef nonnull %4) #25
  %.not18 = icmp eq ptr %16, null
  br i1 %.not18, label %33, label %17

17:                                               ; preds = %._crit_edge
  %18 = load ptr, ptr getelementptr inbounds nuw (i8, ptr @to_pack, i64 144), align 8, !tbaa !286
  %.not.i = icmp eq ptr %18, null
  br i1 %.not.i, label %oe_tree_depth.exit, label %oe_tree_depth.exit.thread

oe_tree_depth.exit:                               ; preds = %17
  %.not21 = icmp eq i32 %.014.lcssa, 0
  br i1 %.not21, label %33, label %27

oe_tree_depth.exit.thread:                        ; preds = %17
  %19 = load ptr, ptr getelementptr inbounds nuw (i8, ptr @to_pack, i64 8), align 8, !tbaa !19
  %20 = ptrtoint ptr %16 to i64
  %21 = ptrtoint ptr %19 to i64
  %22 = sub i64 %20, %21
  %23 = sdiv exact i64 %22, 24
  %24 = getelementptr inbounds i8, ptr %18, i64 %23
  %25 = load i32, ptr %24, align 4, !tbaa !30
  %26 = icmp ugt i32 %.014.lcssa, %25
  br i1 %26, label %oe_set_tree_depth.exit, label %33

27:                                               ; preds = %oe_tree_depth.exit
  %28 = load i32, ptr getelementptr inbounds nuw (i8, ptr @to_pack, i64 20), align 4, !tbaa !175
  %29 = zext i32 %28 to i64
  %30 = tail call ptr @xcalloc(i64 noundef %29, i64 noundef 4) #25
  store ptr %30, ptr getelementptr inbounds nuw (i8, ptr @to_pack, i64 144), align 8, !tbaa !286
  %.pre = load ptr, ptr getelementptr inbounds nuw (i8, ptr @to_pack, i64 8), align 8, !tbaa !19
  %.pre25 = ptrtoint ptr %16 to i64
  %.pre26 = ptrtoint ptr %.pre to i64
  %.pre28 = sub i64 %.pre25, %.pre26
  %.pre30 = sdiv exact i64 %.pre28, 24
  br label %oe_set_tree_depth.exit

oe_set_tree_depth.exit:                           ; preds = %oe_tree_depth.exit.thread, %27
  %.pre-phi31 = phi i64 [ %23, %oe_tree_depth.exit.thread ], [ %.pre30, %27 ]
  %31 = phi ptr [ %18, %oe_tree_depth.exit.thread ], [ %30, %27 ]
  %32 = getelementptr inbounds i8, ptr %31, i64 %.pre-phi31
  store i32 %.014.lcssa, ptr %32, align 4, !tbaa !30
  br label %33

33:                                               ; preds = %oe_tree_depth.exit.thread, %._crit_edge, %oe_tree_depth.exit, %oe_set_tree_depth.exit, %3
  ret void
}